target datalayout = "e-m:e-p270:32:32-p271:32:32-p272:64:64-i64:64-i128:128-f80:128-n8:16:32:64-S128"
target triple = "x86_64-unknown-linux-gnu"

%struct.QObject = type { %struct.QObjectBase_ }
%struct.QObjectBase_ = type { i32, i64 }
%struct.QList = type { %struct.QObjectBase_, %union.anon }
%union.anon = type { %struct.QTailQLink }
%struct.QTailQLink = type { ptr, ptr }
%struct.QListEntry = type { ptr, %union.anon.1 }
%union.anon.1 = type { %struct.QTailQLink }

@.str.2 = private unnamed_addr constant [30 x i8] c"../qemu/qobject/block-qdict.c\00", align 1
@.str.13 = private unnamed_addr constant [7 x i8] c"prefix\00", align 1
@__PRETTY_FUNCTION__.qdict_flatten_qlist = private unnamed_addr constant [57 x i8] c"void qdict_flatten_qlist(QList *, QDict *, const char *)\00", align 1
@.str.14 = private unnamed_addr constant [6 x i8] c"%s.%i\00", align 1
@.str.15 = private unnamed_addr constant [59 x i8] c"QTYPE_NONE < obj->base.type && obj->base.type < QTYPE__MAX\00", align 1
@.str.16 = private unnamed_addr constant [105 x i8] c"/home/dtcxzyw/WorkSpace/Projects/compilers/llvm-opt-benchmark/bench/qemu/qemu/include/qapi/qmp/qobject.h\00", align 1
@__PRETTY_FUNCTION__.qobject_type = private unnamed_addr constant [36 x i8] c"QType qobject_type(const QObject *)\00", align 1

; Function Attrs: nounwind sspstrong uwtable
define internal i32 @qobject_type(ptr noundef %obj) #0 {
entry:
  %obj.addr = alloca ptr, align 8
  store ptr %obj, ptr %obj.addr, align 8
  %0 = load ptr, ptr %obj.addr, align 8
  %base = getelementptr inbounds %struct.QObject, ptr %0, i32 0, i32 0
  %type = getelementptr inbounds %struct.QObjectBase_, ptr %base, i32 0, i32 0
  %1 = load i32, ptr %type, align 8
  %cmp = icmp ult i32 0, %1
  br i1 %cmp, label %land.lhs.true, label %if.else

land.lhs.true:                                    ; preds = %entry
  %2 = load ptr, ptr %obj.addr, align 8
  %base1 = getelementptr inbounds %struct.QObject, ptr %2, i32 0, i32 0
  %type2 = getelementptr inbounds %struct.QObjectBase_, ptr %base1, i32 0, i32 0
  %3 = load i32, ptr %type2, align 8
  %cmp3 = icmp ult i32 %3, 7
  br i1 %cmp3, label %if.then, label %if.else

if.then:                                          ; preds = %land.lhs.true
  br label %if.end

if.else:                                          ; preds = %land.lhs.true, %entry
  call void @__assert_fail(ptr noundef @.str.15, ptr noundef @.str.16, i32 noundef 126, ptr noundef @__PRETTY_FUNCTION__.qobject_type) #6
  unreachable

if.end:                                           ; preds = %if.then
  %4 = load ptr, ptr %obj.addr, align 8
  %base4 = getelementptr inbounds %struct.QObject, ptr %4, i32 0, i32 0
  %type5 = getelementptr inbounds %struct.QObjectBase_, ptr %base4, i32 0, i32 0
  %5 = load i32, ptr %type5, align 8
  ret i32 %5
}

; Function Attrs: nounwind sspstrong uwtable
define internal ptr @qlist_next(ptr noundef %entry1) #0 {
entry:
  %entry.addr = alloca ptr, align 8
  store ptr %entry1, ptr %entry.addr, align 8
  %0 = load ptr, ptr %entry.addr, align 8
  %next = getelementptr inbounds %struct.QListEntry, ptr %0, i32 0, i32 1
  %1 = load ptr, ptr %next, align 8
  ret ptr %1
}

; Function Attrs: nounwind sspstrong uwtable
define internal void @qobject_ref_impl(ptr noundef %obj) #0 {
entry:
  %obj.addr = alloca ptr, align 8
  store ptr %obj, ptr %obj.addr, align 8
  %0 = load ptr, ptr %obj.addr, align 8
  %tobool = icmp ne ptr %0, null
  br i1 %tobool, label %if.then, label %if.end

if.then:                                          ; preds = %entry
  %1 = load ptr, ptr %obj.addr, align 8
  %base = getelementptr inbounds %struct.QObject, ptr %1, i32 0, i32 0
  %refcnt = getelementptr inbounds %struct.QObjectBase_, ptr %base, i32 0, i32 1
  %2 = load i64, ptr %refcnt, align 8
  %inc = add i64 %2, 1
  store i64 %inc, ptr %refcnt, align 8
  br label %if.end

if.end:                                           ; preds = %if.then, %entry
  ret void
}

; Function Attrs: nounwind sspstrong uwtable
define internal ptr @qobject_check_type(ptr noundef %obj, i32 noundef %type) #0 {
entry:
  %retval = alloca ptr, align 8
  %obj.addr = alloca ptr, align 8
  %type.addr = alloca i32, align 4
  store ptr %obj, ptr %obj.addr, align 8
  store i32 %type, ptr %type.addr, align 4
  %0 = load ptr, ptr %obj.addr, align 8
  %tobool = icmp ne ptr %0, null
  br i1 %tobool, label %land.lhs.true, label %if.else

land.lhs.true:                                    ; preds = %entry
  %1 = load ptr, ptr %obj.addr, align 8
  %call = call i32 @qobject_type(ptr noundef %1)
  %2 = load i32, ptr %type.addr, align 4
  %cmp = icmp eq i32 %call, %2
  br i1 %cmp, label %if.then, label %if.else

if.then:                                          ; preds = %land.lhs.true
  %3 = load ptr, ptr %obj.addr, align 8
  store ptr %3, ptr %retval, align 8
  br label %return

if.else:                                          ; preds = %land.lhs.true, %entry
  store ptr null, ptr %retval, align 8
  br label %return

return:                                           ; preds = %if.else, %if.then
  %4 = load ptr, ptr %retval, align 8
  ret ptr %4
}

; Function Attrs: nounwind sspstrong uwtable
define internal ptr @qlist_entry_obj(ptr noundef %entry1) #0 {
entry:
  %entry.addr = alloca ptr, align 8
  store ptr %entry1, ptr %entry.addr, align 8
  %0 = load ptr, ptr %entry.addr, align 8
  %value = getelementptr inbounds %struct.QListEntry, ptr %0, i32 0, i32 0
  %1 = load ptr, ptr %value, align 8
  ret ptr %1
}

; Function Attrs: nounwind sspstrong uwtable
define internal ptr @qlist_first(ptr noundef %qlist) #0 {
entry:
  %qlist.addr = alloca ptr, align 8
  store ptr %qlist, ptr %qlist.addr, align 8
  %0 = load ptr, ptr %qlist.addr, align 8
  %head = getelementptr inbounds %struct.QList, ptr %0, i32 0, i32 1
  %1 = load ptr, ptr %head, align 8
  ret ptr %1
}

; Function Attrs: nounwind sspstrong uwtable
define internal void @qdict_flatten_qlist(ptr noundef %qlist, ptr noundef %target, ptr noundef %prefix) #0 {
entry:
  %qlist.addr = alloca ptr, align 8
  %target.addr = alloca ptr, align 8
  %prefix.addr = alloca ptr, align 8
  %value = alloca ptr, align 8
  %entry1 = alloca ptr, align 8
  %dict_val = alloca ptr, align 8
  %list_val = alloca ptr, align 8
  %new_key = alloca ptr, align 8
  %i = alloca i32, align 4
  %_o = alloca ptr, align 8
  %_obj1 = alloca ptr, align 8
  %tmp = alloca ptr, align 8
  %__mptr = alloca ptr, align 8
  %tmp19 = alloca ptr, align 8
  %tmp20 = alloca ptr, align 8
  store ptr %qlist, ptr %qlist.addr, align 8
  store ptr %target, ptr %target.addr, align 8
  store ptr %prefix, ptr %prefix.addr, align 8
  %0 = load ptr, ptr %prefix.addr, align 8
  %tobool = icmp ne ptr %0, null
  br i1 %tobool, label %if.then, label %if.else

if.then:                                          ; preds = %entry
  br label %if.end

if.else:                                          ; preds = %entry
  call void @__assert_fail(ptr noundef @.str.13, ptr noundef @.str.2, i32 noundef 68, ptr noundef @__PRETTY_FUNCTION__.qdict_flatten_qlist) #6
  unreachable

if.end:                                           ; preds = %if.then
  %1 = load ptr, ptr %qlist.addr, align 8
  %call = call ptr @qlist_first(ptr noundef %1)
  store ptr %call, ptr %entry1, align 8
  store i32 0, ptr %i, align 4
  br label %for.cond

for.cond:                                         ; preds = %for.inc, %if.end
  %2 = load ptr, ptr %entry1, align 8
  %tobool2 = icmp ne ptr %2, null
  br i1 %tobool2, label %for.body, label %for.end

for.body:                                         ; preds = %for.cond
  %3 = load ptr, ptr %entry1, align 8
  %call3 = call ptr @qlist_entry_obj(ptr noundef %3)
  store ptr %call3, ptr %value, align 8
  %4 = load ptr, ptr %value, align 8
  %call4 = call ptr @qobject_check_type(ptr noundef %4, i32 noundef 4)
  store ptr %call4, ptr %dict_val, align 8
  %5 = load ptr, ptr %value, align 8
  %call5 = call ptr @qobject_check_type(ptr noundef %5, i32 noundef 5)
  store ptr %call5, ptr %list_val, align 8
  %6 = load ptr, ptr %prefix.addr, align 8
  %7 = load i32, ptr %i, align 4
  %call6 = call noalias ptr (ptr, ...) @g_strdup_printf(ptr noundef @.str.14, ptr noundef %6, i32 noundef %7)
  store ptr %call6, ptr %new_key, align 8
  %8 = load ptr, ptr %dict_val, align 8
  %tobool7 = icmp ne ptr %8, null
  br i1 %tobool7, label %land.lhs.true, label %if.else11

land.lhs.true:                                    ; preds = %for.body
  %9 = load ptr, ptr %dict_val, align 8
  %call8 = call i64 @qdict_size(ptr noundef %9)
  %tobool9 = icmp ne i64 %call8, 0
  br i1 %tobool9, label %if.then10, label %if.else11

if.then10:                                        ; preds = %land.lhs.true
  %10 = load ptr, ptr %dict_val, align 8
  %11 = load ptr, ptr %target.addr, align 8
  %12 = load ptr, ptr %new_key, align 8
  call void @qdict_flatten_qdict(ptr noundef %10, ptr noundef %11, ptr noundef %12)
  br label %if.end22

if.else11:                                        ; preds = %land.lhs.true, %for.body
  %13 = load ptr, ptr %list_val, align 8
  %tobool12 = icmp ne ptr %13, null
  br i1 %tobool12, label %land.lhs.true13, label %if.else17

land.lhs.true13:                                  ; preds = %if.else11
  %14 = load ptr, ptr %list_val, align 8
  %call14 = call i32 @qlist_empty(ptr noundef %14)
  %tobool15 = icmp ne i32 %call14, 0
  br i1 %tobool15, label %if.else17, label %if.then16

if.then16:                                        ; preds = %land.lhs.true13
  %15 = load ptr, ptr %list_val, align 8
  %16 = load ptr, ptr %target.addr, align 8
  %17 = load ptr, ptr %new_key, align 8
  call void @qdict_flatten_qlist(ptr noundef %15, ptr noundef %16, ptr noundef %17)
  br label %if.end21

if.else17:                                        ; preds = %land.lhs.true13, %if.else11
  %18 = load ptr, ptr %target.addr, align 8
  %19 = load ptr, ptr %new_key, align 8
  %20 = load ptr, ptr %value, align 8
  store ptr %20, ptr %_o, align 8
  %21 = load ptr, ptr %_o, align 8
  store ptr %21, ptr %_obj1, align 8
  %22 = load ptr, ptr %_obj1, align 8
  %tobool18 = icmp ne ptr %22, null
  br i1 %tobool18, label %cond.true, label %cond.false

cond.true:                                        ; preds = %if.else17
  %23 = load ptr, ptr %_obj1, align 8
  %base = getelementptr inbounds %struct.QObject, ptr %23, i32 0, i32 0
  store ptr %base, ptr %__mptr, align 8
  %24 = load ptr, ptr %__mptr, align 8
  %add.ptr = getelementptr i8, ptr %24, i64 0
  store ptr %add.ptr, ptr %tmp19, align 8
  %25 = load ptr, ptr %tmp19, align 8
  br label %cond.end

cond.false:                                       ; preds = %if.else17
  br label %cond.end

cond.end:                                         ; preds = %cond.false, %cond.true
  %cond = phi ptr [ %25, %cond.true ], [ null, %cond.false ]
  store ptr %cond, ptr %tmp, align 8
  %26 = load ptr, ptr %tmp, align 8
  call void @qobject_ref_impl(ptr noundef %26)
  %27 = load ptr, ptr %_o, align 8
  store ptr %27, ptr %tmp20, align 8
  %28 = load ptr, ptr %tmp20, align 8
  call void @qdict_put_obj(ptr noundef %18, ptr noundef %19, ptr noundef %28)
  br label %if.end21

if.end21:                                         ; preds = %cond.end, %if.then16
  br label %if.end22

if.end22:                                         ; preds = %if.end21, %if.then10
  %29 = load ptr, ptr %new_key, align 8
  call void @g_free(ptr noundef %29)
  br label %for.inc

for.inc:                                          ; preds = %if.end22
  %30 = load ptr, ptr %entry1, align 8
  %call23 = call ptr @qlist_next(ptr noundef %30)
  store ptr %call23, ptr %entry1, align 8
  %31 = load i32, ptr %i, align 4
  %inc = add i32 %31, 1
  store i32 %inc, ptr %i, align 4
  br label %for.cond, !llvm.loop !21

for.end:                                          ; preds = %for.cond
  ret void
}