; Function Attrs: nounwind sspstrong uwtable
define internal fastcc void @qdict_flatten_qlist(ptr noundef nonnull readonly captures(none) %qlist, ptr noundef %target, ptr noundef %prefix) unnamed_addr #0 {
entry:
  %tobool.not = icmp eq ptr %prefix, null
  br i1 %tobool.not, label %if.else, label %if.end

if.else:                                          ; preds = %entry
  tail call void @__assert_fail(ptr noundef nonnull @.str.13, ptr noundef nonnull @.str.2, i32 noundef 68, ptr noundef nonnull @__PRETTY_FUNCTION__.qdict_flatten_qlist) #8
  unreachable

if.end:                                           ; preds = %entry
  %0 = getelementptr i8, ptr %qlist, i64 16
  %entry1.049 = load ptr, ptr %0, align 8
  %tobool2.not50 = icmp eq ptr %entry1.049, null
  br i1 %tobool2.not50, label %for.end, label %for.body

for.body:                                         ; preds = %if.end, %if.end22
  %entry1.053 = phi ptr [ %entry1.0, %if.end22 ], [ %entry1.049, %if.end ]
  %i.051 = phi i32 [ %inc, %if.end22 ], [ 0, %if.end ]
  %entry1.0.val = load ptr, ptr %entry1.053, align 8
  %tobool.not.i = icmp eq ptr %entry1.0.val, null
  br i1 %tobool.not.i, label %if.else17, label %land.lhs.true.i

land.lhs.true.i:                                  ; preds = %for.body
  %obj.val.i = load i32, ptr %entry1.0.val, align 8
  %1 = add i32 %obj.val.i, -1
  %or.cond.i.i = icmp ult i32 %1, 6
  br i1 %or.cond.i.i, label %qobject_type.exit.i, label %if.else.i.i

if.else.i.i:                                      ; preds = %land.lhs.true.i
  tail call void @__assert_fail(ptr noundef nonnull @.str.15, ptr noundef nonnull @.str.16, i32 noundef 126, ptr noundef nonnull @__PRETTY_FUNCTION__.qobject_type) #8
  unreachable

qobject_type.exit.i:                              ; preds = %land.lhs.true.i
  %cmp.i.not = icmp eq i32 %obj.val.i, 4
  %cmp.i25 = icmp eq i32 %obj.val.i, 5
  %spec.select = select i1 %cmp.i25, ptr %entry1.0.val, ptr null
  %call6 = tail call noalias ptr (ptr, ...) @g_strdup_printf(ptr noundef nonnull @.str.14, ptr noundef nonnull %prefix, i32 noundef %i.051) #7
  br i1 %cmp.i.not, label %land.lhs.true, label %if.else11

land.lhs.true:                                    ; preds = %qobject_type.exit.i
  %call8 = tail call i64 @qdict_size(ptr noundef nonnull %entry1.0.val) #7
  %tobool9.not = icmp eq i64 %call8, 0
  br i1 %tobool9.not, label %if.else11, label %if.then10

if.then10:                                        ; preds = %land.lhs.true
  tail call fastcc void @qdict_flatten_qdict(ptr noundef nonnull %entry1.0.val, ptr noundef %target, ptr noundef %call6)
  br label %if.end22

if.else11:                                        ; preds = %land.lhs.true, %qobject_type.exit.i
  %tobool12.not = icmp eq ptr %spec.select, null
  br i1 %tobool12.not, label %if.then.i, label %land.lhs.true13

land.lhs.true13:                                  ; preds = %if.else11
  %call14 = tail call i32 @qlist_empty(ptr noundef nonnull %spec.select) #7
  %tobool15.not = icmp eq i32 %call14, 0
  br i1 %tobool15.not, label %if.then16, label %if.then.i

if.then16:                                        ; preds = %land.lhs.true13
  tail call fastcc void @qdict_flatten_qlist(ptr noundef %spec.select, ptr noundef %target, ptr noundef %call6)
  br label %if.end22

if.else17:                                        ; preds = %for.body
  %call637 = tail call noalias ptr (ptr, ...) @g_strdup_printf(ptr noundef nonnull @.str.14, ptr noundef nonnull %prefix, i32 noundef %i.051) #7
  br label %qobject_ref_impl.exit

if.then.i:                                        ; preds = %land.lhs.true13, %if.else11
  %refcnt.i = getelementptr inbounds nuw i8, ptr %entry1.0.val, i64 8
  %2 = load i64, ptr %refcnt.i, align 8
  %inc.i = add i64 %2, 1
  store i64 %inc.i, ptr %refcnt.i, align 8
  br label %qobject_ref_impl.exit

qobject_ref_impl.exit:                            ; preds = %if.else17, %if.then.i
  %call6414548 = phi ptr [ %call637, %if.else17 ], [ %call6, %if.then.i ]
  tail call void @qdict_put_obj(ptr noundef %target, ptr noundef %call6414548, ptr noundef %entry1.0.val) #7
  br label %if.end22

if.end22:                                         ; preds = %if.then16, %qobject_ref_impl.exit, %if.then10
  %call640 = phi ptr [ %call6, %if.then16 ], [ %call6414548, %qobject_ref_impl.exit ], [ %call6, %if.then10 ]
  tail call void @g_free(ptr noundef %call640) #7
  %3 = getelementptr i8, ptr %entry1.053, i64 8
  %inc = add i32 %i.051, 1
  %entry1.0 = load ptr, ptr %3, align 8
  %tobool2.not = icmp eq ptr %entry1.0, null
  br i1 %tobool2.not, label %for.end, label %for.body, !llvm.loop !21

for.end:                                          ; preds = %if.end22, %if.end
  ret void
}